; Function Attrs: nounwind uwtable
define noalias noundef ptr @Aig_ManCofactorBdds(ptr readnone captures(none) %0, ptr noundef readonly captures(none) %1, ptr noundef %2, ptr noundef %3) local_unnamed_addr #0 {
  %5 = tail call noalias dereferenceable_or_null(16) ptr @malloc(i64 noundef 16) #16
  %6 = getelementptr inbounds nuw i8, ptr %5, i64 4
  store i32 0, ptr %6, align 4
  store i32 100, ptr %5, align 8
  %7 = tail call noalias dereferenceable_or_null(800) ptr @malloc(i64 noundef 800) #16
  %8 = getelementptr inbounds nuw i8, ptr %5, i64 8
  store ptr %7, ptr %8, align 8
  %9 = getelementptr i8, ptr %1, i64 8
  %.val24 = load ptr, ptr %9, align 8
  %10 = getelementptr i8, ptr %1, i64 4
  %.val2325 = load i32, ptr %10, align 4
  %.not = icmp eq i32 %.val2325, 31
  br i1 %.not, label %._crit_edge, label %.lr.ph

.lr.ph:                                           ; preds = %4, %Vec_PtrPush.exit
  %.val2327 = phi i32 [ %.val23, %Vec_PtrPush.exit ], [ %.val2325, %4 ]
  %.026 = phi i32 [ %41, %Vec_PtrPush.exit ], [ 0, %4 ]
  %11 = tail call ptr @Extra_bddBitsToCube(ptr noundef %2, i32 noundef %.026, i32 noundef %.val2327, ptr noundef %.val24, i32 noundef 1) #14
  tail call void @Cudd_Ref(ptr noundef %11) #14
  %12 = tail call ptr @Cudd_Cofactor(ptr noundef %2, ptr noundef %3, ptr noundef %11) #14
  tail call void @Cudd_Ref(ptr noundef %12) #14
  %13 = tail call ptr @Cudd_bddAnd(ptr noundef %2, ptr noundef %12, ptr noundef %11) #14
  tail call void @Cudd_Ref(ptr noundef %13) #14
  tail call void @Cudd_RecursiveDeref(ptr noundef %2, ptr noundef %12) #14
  tail call void @Cudd_RecursiveDeref(ptr noundef %2, ptr noundef %11) #14
  %14 = load i32, ptr %6, align 4
  %15 = load i32, ptr %5, align 8
  %16 = icmp eq i32 %14, %15
  br i1 %16, label %17, label %.Vec_PtrGrow.exit11_crit_edge.i

.Vec_PtrGrow.exit11_crit_edge.i:                  ; preds = %.lr.ph
  %.pre.i = load ptr, ptr %8, align 8
  br label %Vec_PtrPush.exit

17:                                               ; preds = %.lr.ph
  %18 = icmp slt i32 %14, 16
  br i1 %18, label %19, label %26

19:                                               ; preds = %17
  %20 = load ptr, ptr %8, align 8
  %.not9.i.i = icmp eq ptr %20, null
  br i1 %.not9.i.i, label %23, label %21

21:                                               ; preds = %19
  %22 = tail call dereferenceable_or_null(128) ptr @realloc(ptr noundef nonnull %20, i64 noundef 128) #17
  br label %Vec_PtrGrow.exit.i

23:                                               ; preds = %19
  %24 = tail call noalias dereferenceable_or_null(128) ptr @malloc(i64 noundef 128) #16
  br label %Vec_PtrGrow.exit.i

Vec_PtrGrow.exit.i:                               ; preds = %23, %21
  %25 = phi ptr [ %22, %21 ], [ %24, %23 ]
  store ptr %25, ptr %8, align 8
  store i32 16, ptr %5, align 8
  br label %Vec_PtrPush.exit

26:                                               ; preds = %17
  %27 = shl nuw nsw i32 %14, 1
  %28 = load ptr, ptr %8, align 8
  %.not9.i10.i = icmp eq ptr %28, null
  %29 = zext nneg i32 %27 to i64
  %30 = shl nuw nsw i64 %29, 3
  br i1 %.not9.i10.i, label %33, label %31

31:                                               ; preds = %26
  %32 = tail call ptr @realloc(ptr noundef nonnull %28, i64 noundef %30) #17
  br label %35

33:                                               ; preds = %26
  %34 = tail call noalias ptr @malloc(i64 noundef %30) #16
  br label %35

35:                                               ; preds = %33, %31
  %36 = phi ptr [ %32, %31 ], [ %34, %33 ]
  store ptr %36, ptr %8, align 8
  store i32 %27, ptr %5, align 8
  br label %Vec_PtrPush.exit

Vec_PtrPush.exit:                                 ; preds = %.Vec_PtrGrow.exit11_crit_edge.i, %Vec_PtrGrow.exit.i, %35
  %37 = phi ptr [ %.pre.i, %.Vec_PtrGrow.exit11_crit_edge.i ], [ %36, %35 ], [ %25, %Vec_PtrGrow.exit.i ]
  %38 = add nsw i32 %14, 1
  store i32 %38, ptr %6, align 4
  %39 = sext i32 %14 to i64
  %40 = getelementptr inbounds ptr, ptr %37, i64 %39
  store ptr %13, ptr %40, align 8
  %41 = add nuw nsw i32 %.026, 1
  %.val23 = load i32, ptr %10, align 4
  %42 = shl nuw i32 1, %.val23
  %43 = icmp slt i32 %41, %42
  br i1 %43, label %.lr.ph, label %._crit_edge, !llvm.loop !9

._crit_edge:                                      ; preds = %Vec_PtrPush.exit, %4
  ret ptr %5
}